(lp0
S'l0_pt'
p1
aS'l1_pt'
p2
aS'l2_pt'
p3
aS'hnl_dr_12'
p4
aS'hnl_m_12'
p5
aS'sv_prob'
p6
aS'hnl_2d_disp'
p7
aS'abs_l0_eta'
p8
aS'abs_l1_eta'
p9
aS'abs_l2_eta'
p10
aS'log_abs_l0_dxy'
p11
aS'log_abs_l0_dz'
p12
aS'log_abs_l1_dxy'
p13
aS'log_abs_l1_dz'
p14
aS'log_abs_l2_dxy'
p15
aS'log_abs_l2_dz'
p16
a.